target datalayout = "e-m:e-p270:32:32-p271:32:32-p272:64:64-i64:64-i128:128-f80:128-n8:16:32:64-S128"
target triple = "x86_64-pc-linux-gnu"

%struct.AVChannelLayout = type { i32, i32, %union.anon, ptr }
%union.anon = type { i64 }
%struct.AACPCEInfo = type { %struct.AVChannelLayout, [4 x i32], [3 x [8 x i32]], [4 x [8 x i32]], [16 x i8], [16 x i8] }
%struct.AACEncContext = type { ptr, %struct.AACEncOptions, %struct.PutBitContext, ptr, ptr, ptr, ptr, ptr, %struct.AACPCEInfo, [16 x ptr], i32, i32, [8 x i8], %struct.LPCContext, i32, i32, ptr, ptr, ptr, %struct.FFPsyContext, ptr, ptr, i32, i32, float, i32, float, i32, i32, %struct.AudioFrameQueue, [96 x i32], [1024 x float], i16, [256 x [128 x %struct.AACQuantizeBandCostCacheEntry]], %struct.AACEncDSPContext, %struct.anon.0 }
%struct.AACEncOptions = type { i32, i32, i32, i32, i32, i32 }
%struct.PutBitContext = type { i32, i32, ptr, ptr, ptr }
%struct.LPCContext = type { i32, i32, i32, ptr, ptr, ptr, ptr, [2 x %struct.LLSModel] }
%struct.LLSModel = type { [36 x [36 x double]], [32 x [32 x double]], [32 x double], i32, ptr, ptr, [8 x i8] }
%struct.FFPsyContext = type { ptr, ptr, ptr, ptr, i32, i32, ptr, ptr, i32, %struct.anon, ptr }
%struct.anon = type { i32, i32, i32 }
%struct.AudioFrameQueue = type { ptr, i32, i32, ptr, i32, i32 }
%struct.AACQuantizeBandCostCacheEntry = type { float, float, i32, i8, i8, i16 }
%struct.AACEncDSPContext = type { ptr, ptr }
%struct.anon.0 = type { ptr }

; Function Attrs: cold nounwind optsize uwtable
define internal i32 @alloc_buffers(ptr noundef %0, ptr noundef %1) #2 {
  %3 = alloca i32, align 4
  %4 = alloca ptr, align 8
  %5 = alloca ptr, align 8
  %6 = alloca i32, align 4
  %7 = alloca i32, align 4
  store ptr %0, ptr %4, align 8, !tbaa !41
  store ptr %1, ptr %5, align 8, !tbaa !4
  call void @llvm.lifetime.start.p0(i64 4, ptr %6) #11
  %8 = load ptr, ptr %5, align 8, !tbaa !4
  %9 = getelementptr inbounds nuw %struct.AACEncContext, ptr %8, i32 0, i32 15
  %10 = load i32, ptr %9, align 4, !tbaa !62
  %11 = mul nsw i32 %10, 3
  %12 = mul nsw i32 %11, 1024
  %13 = sext i32 %12 to i64
  %14 = call noalias ptr @av_calloc(i64 noundef %13, i64 noundef 4)
  %15 = load ptr, ptr %5, align 8, !tbaa !4
  %16 = getelementptr inbounds nuw %struct.AACEncContext, ptr %15, i32 0, i32 35
  %17 = getelementptr inbounds nuw %struct.anon.0, ptr %16, i32 0, i32 0
  store ptr %14, ptr %17, align 8, !tbaa !175
  %18 = icmp ne ptr %14, null
  br i1 %18, label %19, label %30

19:                                               ; preds = %2
  %20 = load ptr, ptr %5, align 8, !tbaa !4
  %21 = getelementptr inbounds nuw %struct.AACEncContext, ptr %20, i32 0, i32 17
  %22 = load ptr, ptr %21, align 16, !tbaa !72
  %23 = getelementptr inbounds i8, ptr %22, i64 0
  %24 = load i8, ptr %23, align 1, !tbaa !69
  %25 = zext i8 %24 to i64
  %26 = call noalias ptr @av_calloc(i64 noundef %25, i64 noundef 92976)
  %27 = load ptr, ptr %5, align 8, !tbaa !4
  %28 = getelementptr inbounds nuw %struct.AACEncContext, ptr %27, i32 0, i32 18
  store ptr %26, ptr %28, align 8, !tbaa !101
  %29 = icmp ne ptr %26, null
  br i1 %29, label %31, label %30

30:                                               ; preds = %19, %2
  store i32 -12, ptr %3, align 4
  store i32 1, ptr %7, align 4
  br label %56

31:                                               ; preds = %19
  store i32 0, ptr %6, align 4, !tbaa !55
  br label %32

32:                                               ; preds = %52, %31
  %33 = load i32, ptr %6, align 4, !tbaa !55
  %34 = load ptr, ptr %5, align 8, !tbaa !4
  %35 = getelementptr inbounds nuw %struct.AACEncContext, ptr %34, i32 0, i32 15
  %36 = load i32, ptr %35, align 4, !tbaa !62
  %37 = icmp slt i32 %33, %36
  br i1 %37, label %38, label %55

38:                                               ; preds = %32
  %39 = load ptr, ptr %5, align 8, !tbaa !4
  %40 = getelementptr inbounds nuw %struct.AACEncContext, ptr %39, i32 0, i32 35
  %41 = getelementptr inbounds nuw %struct.anon.0, ptr %40, i32 0, i32 0
  %42 = load ptr, ptr %41, align 8, !tbaa !175
  %43 = load i32, ptr %6, align 4, !tbaa !55
  %44 = mul nsw i32 3072, %43
  %45 = sext i32 %44 to i64
  %46 = getelementptr inbounds float, ptr %42, i64 %45
  %47 = load ptr, ptr %5, align 8, !tbaa !4
  %48 = getelementptr inbounds nuw %struct.AACEncContext, ptr %47, i32 0, i32 9
  %49 = load i32, ptr %6, align 4, !tbaa !55
  %50 = sext i32 %49 to i64
  %51 = getelementptr inbounds [16 x ptr], ptr %48, i64 0, i64 %50
  store ptr %46, ptr %51, align 8, !tbaa !108
  br label %52

52:                                               ; preds = %38
  %53 = load i32, ptr %6, align 4, !tbaa !55
  %54 = add nsw i32 %53, 1
  store i32 %54, ptr %6, align 4, !tbaa !55
  br label %32, !llvm.loop !176

55:                                               ; preds = %32
  store i32 0, ptr %3, align 4
  store i32 1, ptr %7, align 4
  br label %56

56:                                               ; preds = %55, %30
  call void @llvm.lifetime.end.p0(i64 4, ptr %6) #11
  %57 = load i32, ptr %3, align 4
  ret i32 %57
}