; Function Attrs: cold nounwind optsize uwtable
define internal fastcc range(i32 -12, 1) i32 @alloc_buffers(ptr noundef captures(none) initializes((567272, 567280)) %0) unnamed_addr #2 {
  %2 = getelementptr inbounds nuw i8, ptr %0, i64 38292
  %3 = load i32, ptr %2, align 4, !tbaa !58
  %4 = mul nsw i32 %3, 3072
  %5 = sext i32 %4 to i64
  %6 = tail call noalias ptr @av_calloc(i64 noundef %5, i64 noundef 4) #11
  %7 = getelementptr inbounds nuw i8, ptr %0, i64 567272
  store ptr %6, ptr %7, align 8, !tbaa !218
  %.not = icmp eq ptr %6, null
  br i1 %.not, label %.loopexit, label %8

8:                                                ; preds = %1
  %9 = getelementptr inbounds nuw i8, ptr %0, i64 38304
  %10 = load ptr, ptr %9, align 16, !tbaa !69
  %11 = load i8, ptr %10, align 1, !tbaa !66
  %12 = zext i8 %11 to i64
  %13 = tail call noalias ptr @av_calloc(i64 noundef %12, i64 noundef 92976) #11
  %14 = getelementptr inbounds nuw i8, ptr %0, i64 38312
  store ptr %13, ptr %14, align 8, !tbaa !99
  %.not12 = icmp eq ptr %13, null
  br i1 %.not12, label %.loopexit, label %.preheader

.preheader:                                       ; preds = %8
  %15 = load i32, ptr %2, align 4, !tbaa !58
  %16 = icmp sgt i32 %15, 0
  br i1 %16, label %.lr.ph, label %.loopexit

.lr.ph:                                           ; preds = %.preheader
  %17 = getelementptr inbounds nuw i8, ptr %0, i64 400
  %wide.trip.count = zext nneg i32 %15 to i64
  br label %18

18:                                               ; preds = %.lr.ph, %18
  %indvars.iv = phi i64 [ 0, %.lr.ph ], [ %indvars.iv.next, %18 ]
  %19 = load ptr, ptr %7, align 8, !tbaa !218
  %.idx = mul nuw nsw i64 %indvars.iv, 12288
  %20 = getelementptr inbounds nuw i8, ptr %19, i64 %.idx
  %21 = getelementptr inbounds nuw [16 x ptr], ptr %17, i64 0, i64 %indvars.iv
  store ptr %20, ptr %21, align 8, !tbaa !95
  %indvars.iv.next = add nuw nsw i64 %indvars.iv, 1
  %exitcond.not = icmp eq i64 %indvars.iv.next, %wide.trip.count
  br i1 %exitcond.not, label %.loopexit, label %18, !llvm.loop !219

.loopexit:                                        ; preds = %18, %.preheader, %1, %8
  %.011 = phi i32 [ -12, %8 ], [ -12, %1 ], [ 0, %.preheader ], [ 0, %18 ]
  ret i32 %.011
}